; ModuleID = '39/2209.c'
source_filename = "39/2209.c"
target datalayout = "e-m:e-p270:32:32-p271:32:32-p272:64:64-i64:64-f80:128-n8:16:32:64-S128"
target triple = "x86_64-pc-linux-gnu"

@.str = private unnamed_addr constant [3 x i8] c"%d\00", align 1
@.str.1 = private unnamed_addr constant [3 x i8] c"%s\00", align 1
@.str.2 = private unnamed_addr constant [15 x i8] c"%d %d %c %c %d\00", align 1
@.str.3 = private unnamed_addr constant [4 x i8] c"%s\0A\00", align 1
@.str.4 = private unnamed_addr constant [4 x i8] c"%d\0A\00", align 1

; Function Attrs: noinline nounwind uwtable
define dso_local i32 @main() #0 {
  %1 = alloca i32, align 4
  %2 = alloca i32, align 4
  %3 = alloca i32, align 4
  %4 = alloca i32, align 4
  %5 = alloca [120 x i32], align 16
  %6 = alloca i32, align 4
  %7 = alloca i32, align 4
  %8 = alloca i32, align 4
  %9 = alloca i32, align 4
  %10 = alloca i32, align 4
  %11 = alloca i32, align 4
  %12 = alloca i32, align 4
  %13 = alloca [120 x [50 x i8]], align 16
  %14 = alloca i8, align 1
  %15 = alloca i8, align 1
  store i32 0, i32* %1, align 4
  %16 = call i32 (i8*, ...) @__isoc99_scanf(i8* getelementptr inbounds ([3 x i8], [3 x i8]* @.str, i64 0, i64 0), i32* %2)
  store i32 0, i32* %11, align 4
  store i32 0, i32* %12, align 4
  store i32 1, i32* %3, align 4
  br label %17

17:                                               ; preds = %81, %0
  %18 = load i32, i32* %3, align 4
  %19 = load i32, i32* %2, align 4
  %20 = icmp sle i32 %18, %19
  br i1 %20, label %21, label %84

21:                                               ; preds = %17
  %22 = load i32, i32* %3, align 4
  %23 = sext i32 %22 to i64
  %24 = getelementptr inbounds [120 x [50 x i8]], [120 x [50 x i8]]* %13, i64 0, i64 %23
  %25 = call i32 (i8*, ...) @__isoc99_scanf(i8* getelementptr inbounds ([3 x i8], [3 x i8]* @.str.1, i64 0, i64 0), [50 x i8]* %24)
  %26 = call i32 (i8*, ...) @__isoc99_scanf(i8* getelementptr inbounds ([15 x i8], [15 x i8]* @.str.2, i64 0, i64 0), i32* %7, i32* %8, i8* %14, i8* %15, i32* %6)
  store i32 0, i32* %9, align 4
  %27 = load i32, i32* %7, align 4
  %28 = icmp sgt i32 %27, 80
  br i1 %28, label %29, label %35

29:                                               ; preds = %21
  %30 = load i32, i32* %6, align 4
  %31 = icmp sge i32 %30, 1
  br i1 %31, label %32, label %35

32:                                               ; preds = %29
  %33 = load i32, i32* %9, align 4
  %34 = add nsw i32 %33, 8000
  store i32 %34, i32* %9, align 4
  br label %35

35:                                               ; preds = %32, %29, %21
  %36 = load i32, i32* %7, align 4
  %37 = icmp sgt i32 %36, 85
  br i1 %37, label %38, label %44

38:                                               ; preds = %35
  %39 = load i32, i32* %8, align 4
  %40 = icmp sgt i32 %39, 80
  br i1 %40, label %41, label %44

41:                                               ; preds = %38
  %42 = load i32, i32* %9, align 4
  %43 = add nsw i32 %42, 4000
  store i32 %43, i32* %9, align 4
  br label %44

44:                                               ; preds = %41, %38, %35
  %45 = load i32, i32* %7, align 4
  %46 = icmp sgt i32 %45, 90
  br i1 %46, label %47, label %50

47:                                               ; preds = %44
  %48 = load i32, i32* %9, align 4
  %49 = add nsw i32 %48, 2000
  store i32 %49, i32* %9, align 4
  br label %50

50:                                               ; preds = %47, %44
  %51 = load i32, i32* %7, align 4
  %52 = icmp sgt i32 %51, 85
  br i1 %52, label %53, label %60

53:                                               ; preds = %50
  %54 = load i8, i8* %15, align 1
  %55 = sext i8 %54 to i32
  %56 = icmp eq i32 %55, 89
  br i1 %56, label %57, label %60

57:                                               ; preds = %53
  %58 = load i32, i32* %9, align 4
  %59 = add nsw i32 %58, 1000
  store i32 %59, i32* %9, align 4
  br label %60

60:                                               ; preds = %57, %53, %50
  %61 = load i32, i32* %8, align 4
  %62 = icmp sgt i32 %61, 80
  br i1 %62, label %63, label %70

63:                                               ; preds = %60
  %64 = load i8, i8* %14, align 1
  %65 = sext i8 %64 to i32
  %66 = icmp eq i32 %65, 89
  br i1 %66, label %67, label %70

67:                                               ; preds = %63
  %68 = load i32, i32* %9, align 4
  %69 = add nsw i32 %68, 850
  store i32 %69, i32* %9, align 4
  br label %70

70:                                               ; preds = %67, %63, %60
  %71 = load i32, i32* %12, align 4
  %72 = load i32, i32* %9, align 4
  %73 = add nsw i32 %71, %72
  store i32 %73, i32* %12, align 4
  %74 = load i32, i32* %9, align 4
  %75 = load i32, i32* %11, align 4
  %76 = icmp sgt i32 %74, %75
  br i1 %76, label %77, label %80

77:                                               ; preds = %70
  %78 = load i32, i32* %9, align 4
  store i32 %78, i32* %11, align 4
  %79 = load i32, i32* %3, align 4
  store i32 %79, i32* %10, align 4
  br label %80

80:                                               ; preds = %77, %70
  br label %81

81:                                               ; preds = %80
  %82 = load i32, i32* %3, align 4
  %83 = add nsw i32 %82, 1
  store i32 %83, i32* %3, align 4
  br label %17

84:                                               ; preds = %17
  %85 = load i32, i32* %10, align 4
  %86 = sext i32 %85 to i64
  %87 = getelementptr inbounds [120 x [50 x i8]], [120 x [50 x i8]]* %13, i64 0, i64 %86
  %88 = getelementptr inbounds [50 x i8], [50 x i8]* %87, i64 0, i64 0
  %89 = call i32 (i8*, ...) @printf(i8* getelementptr inbounds ([4 x i8], [4 x i8]* @.str.3, i64 0, i64 0), i8* %88)
  %90 = load i32, i32* %11, align 4
  %91 = call i32 (i8*, ...) @printf(i8* getelementptr inbounds ([4 x i8], [4 x i8]* @.str.4, i64 0, i64 0), i32 %90)
  %92 = load i32, i32* %12, align 4
  %93 = call i32 (i8*, ...) @printf(i8* getelementptr inbounds ([4 x i8], [4 x i8]* @.str.4, i64 0, i64 0), i32 %92)
  ret i32 0
}

declare dso_local i32 @__isoc99_scanf(i8*, ...) #1

declare dso_local i32 @printf(i8*, ...) #1


!llvm.module.flags = !{!0}
!llvm.ident = !{!1}

!0 = !{i32 1, !"wchar_size", i32 4}
!1 = !{!"clang version 10.0.0-4ubuntu1 "}
